; Function Attrs: nounwind uwtable
define zeroext range(i8 0, 2) i8 @l_Lean_hasNeverExtractAttribute_visit(ptr noundef %0, ptr noundef %1) local_unnamed_addr #0 {
  %3 = ptrtoint ptr %0 to i64
  %4 = and i64 %3, 1
  %.not = icmp eq i64 %4, 0
  br i1 %.not, label %.split.us, label %.split

.split.us:                                        ; preds = %2, %.split.us.backedge
  %.017.us = phi ptr [ %17, %.split.us.backedge ], [ %1, %2 ]
  %5 = load ptr, ptr @l_Lean_hasNeverExtractAttribute_visit___closed__1, align 8, !tbaa !9
  %.val.i.us = load i32, ptr %0, align 4, !tbaa !4
  %6 = icmp sgt i32 %.val.i.us, 0
  br i1 %6, label %9, label %7, !prof !11

7:                                                ; preds = %.split.us
  %.not.i34.us = icmp eq i32 %.val.i.us, 0
  br i1 %.not.i34.us, label %lean_inc.exit.us, label %8

8:                                                ; preds = %7
  tail call void @lean_inc_ref_cold(ptr noundef nonnull %0) #3
  br label %lean_inc.exit.us

9:                                                ; preds = %.split.us
  %10 = add nuw i32 %.val.i.us, 1
  store i32 %10, ptr %0, align 4, !tbaa !4
  br label %lean_inc.exit.us

lean_inc.exit.us:                                 ; preds = %9, %8, %7
  %11 = tail call zeroext i8 @l_Lean_TagAttribute_hasTag(ptr noundef %5, ptr noundef nonnull %0, ptr noundef %.017.us) #3
  %12 = icmp eq i8 %11, 0
  br i1 %12, label %13, label %.split47.us

13:                                               ; preds = %lean_inc.exit.us
  %14 = tail call zeroext i8 @l_Lean_Name_isInternal(ptr noundef %.017.us) #3
  %15 = icmp eq i8 %14, 0
  br i1 %15, label %.split50.us, label %16

16:                                               ; preds = %13
  %17 = tail call ptr @l_Lean_Name_getPrefix(ptr noundef %.017.us) #3
  %18 = ptrtoint ptr %.017.us to i64
  %19 = and i64 %18, 1
  %.not42.us = icmp eq i64 %19, 0
  br i1 %.not42.us, label %20, label %.split.us.backedge

20:                                               ; preds = %16
  %21 = load i32, ptr %.017.us, align 4, !tbaa !4
  %22 = icmp sgt i32 %21, 1
  br i1 %22, label %25, label %23, !prof !11

23:                                               ; preds = %20
  %.not.i28.us = icmp eq i32 %21, 0
  br i1 %.not.i28.us, label %.split.us.backedge, label %24

24:                                               ; preds = %23
  tail call void @lean_dec_ref_cold(ptr noundef nonnull %.017.us) #3
  br label %.split.us.backedge

25:                                               ; preds = %20
  %26 = add nsw i32 %21, -1
  store i32 %26, ptr %.017.us, align 4, !tbaa !4
  br label %.split.us.backedge

.split.us.backedge:                               ; preds = %25, %24, %23, %16
  br label %.split.us

.split:                                           ; preds = %2
  %27 = load ptr, ptr @l_Lean_hasNeverExtractAttribute_visit___closed__1, align 8, !tbaa !9
  %28 = tail call zeroext i8 @l_Lean_TagAttribute_hasTag(ptr noundef %27, ptr noundef %0, ptr noundef %1) #3
  %29 = icmp eq i8 %28, 0
  br i1 %29, label %.lr.ph, label %.split47.us

.lr.ph:                                           ; preds = %.split, %lean_dec.exit24
  %.01753 = phi ptr [ %49, %lean_dec.exit24 ], [ %1, %.split ]
  %30 = tail call zeroext i8 @l_Lean_Name_isInternal(ptr noundef %.01753) #3
  %31 = icmp eq i8 %30, 0
  br i1 %31, label %.split50.us, label %48

.split50.us:                                      ; preds = %.lr.ph, %13
  %.us-phi51 = phi ptr [ %.017.us, %13 ], [ %.01753, %.lr.ph ]
  %32 = ptrtoint ptr %.us-phi51 to i64
  %33 = and i64 %32, 1
  %.not43 = icmp eq i64 %33, 0
  br i1 %.not43, label %34, label %lean_dec.exit25

34:                                               ; preds = %.split50.us
  %35 = load i32, ptr %.us-phi51, align 4, !tbaa !4
  %36 = icmp sgt i32 %35, 1
  br i1 %36, label %37, label %39, !prof !11

37:                                               ; preds = %34
  %38 = add nsw i32 %35, -1
  store i32 %38, ptr %.us-phi51, align 4, !tbaa !4
  br label %lean_dec.exit25

39:                                               ; preds = %34
  %.not.i = icmp eq i32 %35, 0
  br i1 %.not.i, label %lean_dec.exit25, label %40

40:                                               ; preds = %39
  tail call void @lean_dec_ref_cold(ptr noundef nonnull %.us-phi51) #3
  br label %lean_dec.exit25

lean_dec.exit25:                                  ; preds = %40, %39, %37, %.split50.us
  br i1 %.not, label %41, label %78

41:                                               ; preds = %lean_dec.exit25
  %42 = load i32, ptr %0, align 4, !tbaa !4
  %43 = icmp sgt i32 %42, 1
  br i1 %43, label %44, label %46, !prof !11

44:                                               ; preds = %41
  %45 = add nsw i32 %42, -1
  store i32 %45, ptr %0, align 4, !tbaa !4
  br label %78

46:                                               ; preds = %41
  %.not.i26 = icmp eq i32 %42, 0
  br i1 %.not.i26, label %78, label %47

47:                                               ; preds = %46
  tail call void @lean_dec_ref_cold(ptr noundef nonnull %0) #3
  br label %78

48:                                               ; preds = %.lr.ph
  %49 = tail call ptr @l_Lean_Name_getPrefix(ptr noundef %.01753) #3
  %50 = ptrtoint ptr %.01753 to i64
  %51 = and i64 %50, 1
  %.not42 = icmp eq i64 %51, 0
  br i1 %.not42, label %52, label %lean_dec.exit24

52:                                               ; preds = %48
  %53 = load i32, ptr %.01753, align 4, !tbaa !4
  %54 = icmp sgt i32 %53, 1
  br i1 %54, label %55, label %57, !prof !11

55:                                               ; preds = %52
  %56 = add nsw i32 %53, -1
  store i32 %56, ptr %.01753, align 4, !tbaa !4
  br label %lean_dec.exit24

57:                                               ; preds = %52
  %.not.i28 = icmp eq i32 %53, 0
  br i1 %.not.i28, label %lean_dec.exit24, label %58

58:                                               ; preds = %57
  tail call void @lean_dec_ref_cold(ptr noundef nonnull %.01753) #3
  br label %lean_dec.exit24

.split47.us:                                      ; preds = %lean_dec.exit24, %lean_inc.exit.us, %.split
  %.us-phi = phi ptr [ %1, %.split ], [ %.017.us, %lean_inc.exit.us ], [ %49, %lean_dec.exit24 ]
  %59 = ptrtoint ptr %.us-phi to i64
  %60 = and i64 %59, 1
  %.not41 = icmp eq i64 %60, 0
  br i1 %.not41, label %61, label %lean_dec.exit22

61:                                               ; preds = %.split47.us
  %62 = load i32, ptr %.us-phi, align 4, !tbaa !4
  %63 = icmp sgt i32 %62, 1
  br i1 %63, label %64, label %66, !prof !11

64:                                               ; preds = %61
  %65 = add nsw i32 %62, -1
  store i32 %65, ptr %.us-phi, align 4, !tbaa !4
  br label %lean_dec.exit22

66:                                               ; preds = %61
  %.not.i30 = icmp eq i32 %62, 0
  br i1 %.not.i30, label %lean_dec.exit22, label %67

67:                                               ; preds = %66
  tail call void @lean_dec_ref_cold(ptr noundef nonnull %.us-phi) #3
  br label %lean_dec.exit22

lean_dec.exit22:                                  ; preds = %67, %66, %64, %.split47.us
  br i1 %.not, label %68, label %78

68:                                               ; preds = %lean_dec.exit22
  %69 = load i32, ptr %0, align 4, !tbaa !4
  %70 = icmp sgt i32 %69, 1
  br i1 %70, label %71, label %73, !prof !11

71:                                               ; preds = %68
  %72 = add nsw i32 %69, -1
  store i32 %72, ptr %0, align 4, !tbaa !4
  br label %78

73:                                               ; preds = %68
  %.not.i32 = icmp eq i32 %69, 0
  br i1 %.not.i32, label %78, label %74

74:                                               ; preds = %73
  tail call void @lean_dec_ref_cold(ptr noundef nonnull %0) #3
  br label %78

lean_dec.exit24:                                  ; preds = %48, %55, %57, %58
  %75 = load ptr, ptr @l_Lean_hasNeverExtractAttribute_visit___closed__1, align 8, !tbaa !9
  %76 = tail call zeroext i8 @l_Lean_TagAttribute_hasTag(ptr noundef %75, ptr noundef %0, ptr noundef %49) #3
  %77 = icmp eq i8 %76, 0
  br i1 %77, label %.lr.ph, label %.split47.us

78:                                               ; preds = %47, %46, %44, %lean_dec.exit25, %74, %73, %71, %lean_dec.exit22
  %.2.ph = phi i8 [ 1, %lean_dec.exit22 ], [ 1, %71 ], [ 1, %73 ], [ 1, %74 ], [ 0, %lean_dec.exit25 ], [ 0, %44 ], [ 0, %46 ], [ 0, %47 ]
  ret i8 %.2.ph
}